; Function Attrs: nounwind uwtable
define void @pmix_class_initialize(ptr noundef captures(none) %0) local_unnamed_addr #0 {
  %2 = load i32, ptr @pmix_class_init_epoch, align 4, !tbaa !3
  %3 = getelementptr inbounds nuw i8, ptr %0, i64 32
  %4 = load i32, ptr %3, align 8, !tbaa !7
  %5 = icmp eq i32 %2, %4
  br i1 %5, label %78, label %6

6:                                                ; preds = %1
  %7 = tail call i32 @pthread_mutex_lock(ptr noundef nonnull @class_mutex) #9
  %8 = load i32, ptr @pmix_class_init_epoch, align 4, !tbaa !3
  %9 = load i32, ptr %3, align 8, !tbaa !7
  %10 = icmp eq i32 %8, %9
  br i1 %10, label %.sink.split, label %.lr.ph

.lr.ph:                                           ; preds = %6
  %11 = getelementptr inbounds nuw i8, ptr %0, i64 36
  br label %12

12:                                               ; preds = %.lr.ph, %12
  %13 = phi i32 [ 0, %.lr.ph ], [ %20, %12 ]
  %.03756 = phi i32 [ 0, %.lr.ph ], [ %.1, %12 ]
  %.03855 = phi i32 [ 0, %.lr.ph ], [ %spec.select, %12 ]
  %.04454 = phi ptr [ %0, %.lr.ph ], [ %22, %12 ]
  %14 = getelementptr inbounds nuw i8, ptr %.04454, i64 16
  %15 = load ptr, ptr %14, align 8, !tbaa !13
  %.not51 = icmp ne ptr %15, null
  %16 = zext i1 %.not51 to i32
  %spec.select = add nuw nsw i32 %.03855, %16
  %17 = getelementptr inbounds nuw i8, ptr %.04454, i64 24
  %18 = load ptr, ptr %17, align 8, !tbaa !14
  %.not52 = icmp ne ptr %18, null
  %19 = zext i1 %.not52 to i32
  %.1 = add nuw nsw i32 %.03756, %19
  %20 = add nuw nsw i32 %13, 1
  %21 = getelementptr inbounds nuw i8, ptr %.04454, i64 8
  %22 = load ptr, ptr %21, align 8, !tbaa !15
  %.not = icmp eq ptr %22, null
  br i1 %.not, label %23, label %12, !llvm.loop !16

23:                                               ; preds = %12
  store i32 %20, ptr %11, align 4, !tbaa !18
  %24 = add nuw nsw i32 %spec.select, 2
  %25 = add nuw nsw i32 %24, %.1
  %26 = zext nneg i32 %25 to i64
  %27 = shl nuw nsw i64 %26, 3
  %28 = tail call noalias ptr @malloc(i64 noundef %27) #10
  %29 = getelementptr inbounds nuw i8, ptr %0, i64 40
  store ptr %28, ptr %29, align 8, !tbaa !19
  %30 = icmp eq ptr %28, null
  br i1 %30, label %31, label %32

31:                                               ; preds = %23
  tail call void @perror(ptr noundef nonnull @.str.1) #11
  tail call void @exit(i32 noundef -1) #12
  unreachable

32:                                               ; preds = %23
  %33 = zext nneg i32 %spec.select to i64
  %34 = getelementptr inbounds nuw ptr, ptr %28, i64 %33
  %35 = getelementptr inbounds nuw i8, ptr %34, i64 8
  %36 = getelementptr inbounds nuw i8, ptr %0, i64 48
  store ptr %35, ptr %36, align 8, !tbaa !20
  store ptr null, ptr %34, align 8, !tbaa !21
  br label %.lr.ph63

.lr.ph63:                                         ; preds = %32, %46
  %.061 = phi i32 [ %49, %46 ], [ 0, %32 ]
  %.04060 = phi ptr [ %.141, %46 ], [ %35, %32 ]
  %.04259 = phi ptr [ %.143, %46 ], [ %34, %32 ]
  %.14558 = phi ptr [ %48, %46 ], [ %0, %32 ]
  %37 = getelementptr inbounds nuw i8, ptr %.14558, i64 16
  %38 = load ptr, ptr %37, align 8, !tbaa !13
  %.not49 = icmp eq ptr %38, null
  br i1 %.not49, label %41, label %39

39:                                               ; preds = %.lr.ph63
  %40 = getelementptr inbounds i8, ptr %.04259, i64 -8
  store ptr %38, ptr %40, align 8, !tbaa !21
  br label %41

41:                                               ; preds = %39, %.lr.ph63
  %.143 = phi ptr [ %40, %39 ], [ %.04259, %.lr.ph63 ]
  %42 = getelementptr inbounds nuw i8, ptr %.14558, i64 24
  %43 = load ptr, ptr %42, align 8, !tbaa !14
  %.not50 = icmp eq ptr %43, null
  br i1 %.not50, label %46, label %44

44:                                               ; preds = %41
  store ptr %43, ptr %.04060, align 8, !tbaa !21
  %45 = getelementptr inbounds nuw i8, ptr %.04060, i64 8
  br label %46

46:                                               ; preds = %44, %41
  %.141 = phi ptr [ %45, %44 ], [ %.04060, %41 ]
  %47 = getelementptr inbounds nuw i8, ptr %.14558, i64 8
  %48 = load ptr, ptr %47, align 8, !tbaa !15
  %49 = add nuw nsw i32 %.061, 1
  %exitcond.not = icmp eq i32 %.061, %13
  br i1 %exitcond.not, label %._crit_edge64, label %.lr.ph63, !llvm.loop !22

._crit_edge64:                                    ; preds = %46
  store ptr null, ptr %.141, align 8, !tbaa !21
  store i32 %8, ptr %3, align 8, !tbaa !7
  %50 = load i32, ptr @num_classes, align 4, !tbaa !3
  %51 = load i32, ptr @max_classes, align 4, !tbaa !3
  %.not.i = icmp slt i32 %50, %51
  %.pre.i = load ptr, ptr @classes, align 8, !tbaa !21
  br i1 %.not.i, label %save_class.exit, label %52

52:                                               ; preds = %._crit_edge64
  %53 = add nsw i32 %51, 10
  store i32 %53, ptr @max_classes, align 4, !tbaa !3
  %54 = icmp eq ptr %.pre.i, null
  %55 = sext i32 %53 to i64
  br i1 %54, label %56, label %58

56:                                               ; preds = %52
  %57 = tail call noalias ptr @calloc(i64 noundef %55, i64 noundef 8) #13
  br label %61

58:                                               ; preds = %52
  %59 = shl nsw i64 %55, 3
  %60 = tail call ptr @realloc(ptr noundef nonnull %.pre.i, i64 noundef %59) #14
  br label %61

61:                                               ; preds = %58, %56
  %storemerge.i.i = phi ptr [ %60, %58 ], [ %57, %56 ]
  store ptr %storemerge.i.i, ptr @classes, align 8, !tbaa !21
  %62 = icmp eq ptr %storemerge.i.i, null
  br i1 %62, label %63, label %64

63:                                               ; preds = %61
  tail call void @perror(ptr noundef nonnull @.str.2) #11
  tail call void @exit(i32 noundef -1) #12
  unreachable

64:                                               ; preds = %61
  %65 = icmp slt i32 %50, %53
  br i1 %65, label %.lr.ph.preheader.i.i, label %save_class.exit

.lr.ph.preheader.i.i:                             ; preds = %64
  %66 = sext i32 %50 to i64
  %67 = shl nsw i64 %66, 3
  %scevgep.i.i = getelementptr i8, ptr %storemerge.i.i, i64 %67
  %reass.sub = sub i32 %51, %50
  %68 = add i32 %reass.sub, 9
  %69 = zext i32 %68 to i64
  %70 = shl nuw nsw i64 %69, 3
  %71 = add nuw nsw i64 %70, 8
  tail call void @llvm.memset.p0.i64(ptr noundef nonnull align 8 dereferenceable(1) %scevgep.i.i, i8 0, i64 %71, i1 false), !tbaa !21
  br label %save_class.exit

save_class.exit:                                  ; preds = %._crit_edge64, %64, %.lr.ph.preheader.i.i
  %72 = phi ptr [ %storemerge.i.i, %.lr.ph.preheader.i.i ], [ %storemerge.i.i, %64 ], [ %.pre.i, %._crit_edge64 ]
  %73 = load ptr, ptr %29, align 8, !tbaa !19
  %74 = sext i32 %50 to i64
  %75 = getelementptr inbounds ptr, ptr %72, i64 %74
  store ptr %73, ptr %75, align 8, !tbaa !21
  %76 = add nsw i32 %50, 1
  store i32 %76, ptr @num_classes, align 4, !tbaa !3
  br label %.sink.split

.sink.split:                                      ; preds = %6, %save_class.exit
  %77 = tail call i32 @pthread_mutex_unlock(ptr noundef nonnull @class_mutex) #9
  br label %78

78:                                               ; preds = %.sink.split, %1
  ret void
}